target datalayout = "e-m:e-p270:32:32-p271:32:32-p272:64:64-i64:64-i128:128-f80:128-n8:16:32:64-S128"
target triple = "x86_64-pc-linux-gnu"

%struct.wtap_block = type { ptr, ptr, ptr, i32 }
%struct.wtapng_nrb_mandatory_s = type { ptr, ptr }

; Function Attrs: null_pointer_is_valid sspstrong uwtable
define internal void @nrb_free_mand(ptr noundef %0) #0 {
  %2 = alloca ptr, align 8
  %3 = alloca ptr, align 8
  store ptr %0, ptr %2, align 8
  call void @llvm.lifetime.start.p0(i64 8, ptr %3) #15
  %4 = load ptr, ptr %2, align 8
  %5 = getelementptr inbounds nuw %struct.wtap_block, ptr %4, i32 0, i32 1
  %6 = load ptr, ptr %5, align 8
  store ptr %6, ptr %3, align 8
  %7 = load ptr, ptr %3, align 8
  %8 = getelementptr inbounds nuw %struct.wtapng_nrb_mandatory_s, ptr %7, i32 0, i32 0
  %9 = load ptr, ptr %8, align 8
  call void @g_list_free_full(ptr noundef %9, ptr noundef @g_free)
  %10 = load ptr, ptr %3, align 8
  %11 = getelementptr inbounds nuw %struct.wtapng_nrb_mandatory_s, ptr %10, i32 0, i32 1
  %12 = load ptr, ptr %11, align 8
  call void @g_list_free_full(ptr noundef %12, ptr noundef @g_free)
  call void @llvm.lifetime.end.p0(i64 8, ptr %3) #15
  ret void
}