; Function Attrs: null_pointer_is_valid sspstrong uwtable
define internal void @nrb_free_mand(ptr noundef readonly captures(none) %0) #0 {
  %2 = getelementptr inbounds nuw i8, ptr %0, i64 8
  %3 = load ptr, ptr %2, align 8
  %4 = load ptr, ptr %3, align 8
  tail call void @g_list_free_full(ptr noundef %4, ptr noundef nonnull @g_free)
  %5 = getelementptr inbounds nuw i8, ptr %3, i64 8
  %6 = load ptr, ptr %5, align 8
  tail call void @g_list_free_full(ptr noundef %6, ptr noundef nonnull @g_free)
  ret void
}